(dp0
Vhead
p1
(dp2
Vvars
p3
(lp4
Ventity
p5
aVlinked_props
p6
aVprop
p7
aVcharacter_role
p8
aVlinked_entity
p9
aVlinked_character_role
p10
assVresults
p11
(dp12
Vbindings
p13
(lp14
(dp15
Vcharacter_role
p16
(dp17
Vtype
p18
Vuri
p19
sVvalue
p20
Vhttp://www.wikidata.org/entity/Q943048
p21
ssVprop
p22
(dp23
Vtype
p24
Vuri
p25
sVvalue
p26
Vhttp://www.wikidata.org/entity/Q81328
p27
ssVentity
p28
(dp29
Vtype
p30
Vuri
p31
sVvalue
p32
Vhttp://www.wikidata.org/entity/Q184843
p33
ssVlinked_props
p34
(dp35
Vtype
p36
Vuri
p37
sVvalue
p38
Vhttp://www.wikidata.org/prop/direct/P161
p39
ssVlinked_entity
p40
(dp41
Vtype
p42
Vuri
p43
sVvalue
p44
Vhttp://www.wikidata.org/entity/Q1538082
p45
ssVlinked_character_role
p46
(dp47
Vtype
p48
Vuri
p49
sVvalue
p50
Vhttp://www.wikidata.org/entity/Q51802
p51
ssa(dp52
Vcharacter_role
p53
(dp54
Vtype
p55
Vuri
p56
sVvalue
p57
Vhttp://www.wikidata.org/entity/Q943048
p58
ssVprop
p59
(dp60
Vtype
p61
Vuri
p62
sVvalue
p63
Vhttp://www.wikidata.org/entity/Q81328
p64
ssVentity
p65
(dp66
Vtype
p67
Vuri
p68
sVvalue
p69
Vhttp://www.wikidata.org/entity/Q184843
p70
ssVlinked_props
p71
(dp72
Vtype
p73
Vuri
p74
sVvalue
p75
Vhttp://www.wikidata.org/prop/direct/P161
p76
ssVlinked_entity
p77
(dp78
Vtype
p79
Vuri
p80
sVvalue
p81
Vhttp://www.wikidata.org/entity/Q1392442
p82
ssVlinked_character_role
p83
(dp84
Vtype
p85
Vuri
p86
sVvalue
p87
Vhttp://www.wikidata.org/entity/Q1068314
p88
ssa(dp89
Vcharacter_role
p90
(dp91
Vtype
p92
Vuri
p93
sVvalue
p94
Vhttp://www.wikidata.org/entity/Q943048
p95
ssVprop
p96
(dp97
Vtype
p98
Vuri
p99
sVvalue
p100
Vhttp://www.wikidata.org/entity/Q81328
p101
ssVentity
p102
(dp103
Vtype
p104
Vuri
p105
sVvalue
p106
Vhttp://www.wikidata.org/entity/Q184843
p107
ssVlinked_props
p108
(dp109
Vtype
p110
Vuri
p111
sVvalue
p112
Vhttp://www.wikidata.org/prop/direct/P161
p113
ssVlinked_entity
p114
(dp115
Vtype
p116
Vuri
p117
sVvalue
p118
Vhttp://www.wikidata.org/entity/Q181803
p119
ssVlinked_character_role
p120
(dp121
Vtype
p122
Vuri
p123
sVvalue
p124
Vhttp://www.wikidata.org/entity/Q51802
p125
ssa(dp126
Vcharacter_role
p127
(dp128
Vtype
p129
Vuri
p130
sVvalue
p131
Vhttp://www.wikidata.org/entity/Q943048
p132
ssVprop
p133
(dp134
Vtype
p135
Vuri
p136
sVvalue
p137
Vhttp://www.wikidata.org/entity/Q81328
p138
ssVentity
p139
(dp140
Vtype
p141
Vuri
p142
sVvalue
p143
Vhttp://www.wikidata.org/entity/Q184843
p144
ssVlinked_props
p145
(dp146
Vtype
p147
Vuri
p148
sVvalue
p149
Vhttp://www.wikidata.org/prop/direct/P161
p150
ssVlinked_entity
p151
(dp152
Vtype
p153
Vuri
p154
sVvalue
p155
Vhttp://www.wikidata.org/entity/Q24278982
p156
ssVlinked_character_role
p157
(dp158
Vtype
p159
Vuri
p160
sVvalue
p161
Vhttp://www.wikidata.org/entity/Q148659
p162
ssa(dp163
Vcharacter_role
p164
(dp165
Vtype
p166
Vuri
p167
sVvalue
p168
Vhttp://www.wikidata.org/entity/Q943048
p169
ssVprop
p170
(dp171
Vtype
p172
Vuri
p173
sVvalue
p174
Vhttp://www.wikidata.org/entity/Q81328
p175
ssVentity
p176
(dp177
Vtype
p178
Vuri
p179
sVvalue
p180
Vhttp://www.wikidata.org/entity/Q184843
p181
ssVlinked_props
p182
(dp183
Vtype
p184
Vuri
p185
sVvalue
p186
Vhttp://www.wikidata.org/prop/direct/P161
p187
ssVlinked_entity
p188
(dp189
Vtype
p190
Vuri
p191
sVvalue
p192
Vhttp://www.wikidata.org/entity/Q185658
p193
ssVlinked_character_role
p194
(dp195
Vtype
p196
Vuri
p197
sVvalue
p198
Vhttp://www.wikidata.org/entity/Q148659
p199
ssass.